target datalayout = "e-m:e-p270:32:32-p271:32:32-p272:64:64-i64:64-i128:128-f80:128-n8:16:32:64-S128"
target triple = "x86_64-pc-linux-gnu"

%"class.std::ios_base::Init" = type { i8 }

$_Z13RUN_ALL_TESTSv = comdat any

@_ZStL8__ioinit = internal global %"class.std::ios_base::Init" zeroinitializer, align 1
@__dso_handle = external hidden global i8
@.str = private unnamed_addr constant [24 x i8] c"Running main() from %s\0A\00", align 1
@.str.1 = private unnamed_addr constant [143 x i8] c"generated/home/dtcxzyw/WorkSpace/Projects/compilers/llvm-opt-benchmark/bench/abc/bench_build/_deps/googletest-src/googletest/src/gtest_main.cc\00", align 1
@llvm.global_ctors = appending global [1 x { i32, ptr, ptr }] [{ i32, ptr, ptr } { i32 65535, ptr @_GLOBAL__sub_I_gtest_main.cc, ptr null }]

; Function Attrs: uwtable
define internal void @__cxx_global_var_init() #0 section ".text.startup" {
  call void @_ZNSt8ios_base4InitC1Ev(ptr noundef nonnull align 1 dereferenceable(1) @_ZStL8__ioinit)
  %1 = call i32 @__cxa_atexit(ptr @_ZNSt8ios_base4InitD1Ev, ptr @_ZStL8__ioinit, ptr @__dso_handle) #3
  ret void
}

declare void @_ZNSt8ios_base4InitC1Ev(ptr noundef nonnull align 1 dereferenceable(1)) unnamed_addr #1

; Function Attrs: nounwind
declare void @_ZNSt8ios_base4InitD1Ev(ptr noundef nonnull align 1 dereferenceable(1)) unnamed_addr #2

; Function Attrs: nounwind
declare i32 @__cxa_atexit(ptr, ptr, ptr) #3

; Function Attrs: mustprogress norecurse uwtable
define noundef i32 @main(i32 noundef %0, ptr noundef %1) #4 {
  %3 = alloca i32, align 4
  %4 = alloca i32, align 4
  %5 = alloca ptr, align 8
  store i32 0, ptr %3, align 4
  store i32 %0, ptr %4, align 4, !tbaa !3
  store ptr %1, ptr %5, align 8, !tbaa !7
  %6 = call i32 (ptr, ...) @printf(ptr noundef @.str, ptr noundef @.str.1)
  %7 = load ptr, ptr %5, align 8, !tbaa !7
  call void @_ZN7testing14InitGoogleTestEPiPPc(ptr noundef %4, ptr noundef %7)
  %8 = call noundef i32 @_Z13RUN_ALL_TESTSv()
  ret i32 %8
}

declare i32 @printf(ptr noundef, ...) #1

declare void @_ZN7testing14InitGoogleTestEPiPPc(ptr noundef, ptr noundef) #1

; Function Attrs: inlinehint mustprogress uwtable
define linkonce_odr noundef i32 @_Z13RUN_ALL_TESTSv() #5 comdat {
  %1 = call noundef ptr @_ZN7testing8UnitTest11GetInstanceEv()
  %2 = call noundef i32 @_ZN7testing8UnitTest3RunEv(ptr noundef nonnull align 8 dereferenceable(72) %1)
  ret i32 %2
}

declare noundef ptr @_ZN7testing8UnitTest11GetInstanceEv() #1

declare noundef i32 @_ZN7testing8UnitTest3RunEv(ptr noundef nonnull align 8 dereferenceable(72)) #1

; Function Attrs: uwtable
define internal void @_GLOBAL__sub_I_gtest_main.cc() #0 section ".text.startup" {
  call void @__cxx_global_var_init()
  ret void
}


!llvm.module.flags = !{!0, !1, !2}

!0 = !{i32 1, !"wchar_size", i32 4}
!1 = !{i32 8, !"PIC Level", i32 2}
!2 = !{i32 7, !"uwtable", i32 2}
!3 = !{!4, !4, i64 0}
!4 = !{!"int", !5, i64 0}
!5 = !{!"omnipotent char", !6, i64 0}
!6 = !{!"Simple C++ TBAA"}
!7 = !{!8, !8, i64 0}
!8 = !{!"p2 omnipotent char", !9, i64 0}
!9 = !{!"any pointer", !5, i64 0}
